target datalayout = "e-m:e-p270:32:32-p271:32:32-p272:64:64-i64:64-i128:128-f80:128-n8:16:32:64-S128"
target triple = "x86_64-pc-linux-gnu"

%struct.H5VL_loc_params_t = type { i32, i32, %union.anon }
%union.anon = type { %struct.H5VL_loc_by_idx }
%struct.H5VL_loc_by_idx = type { ptr, i32, i32, i64, i64 }
%struct.H5VL_optional_args_t = type { i32, ptr }

@H5_libinit_g = external global i8, align 1
@H5_libterm_g = external global i8, align 1
@.str = private unnamed_addr constant [97 x i8] c"generated/home/dtcxzyw/WorkSpace/Projects/compilers/llvm-opt-benchmark/bench/hdf5/hdf5/src/H5O.c\00", align 1
@H5E_FUNC_g = external global i64, align 8
@H5E_CANTINIT_g = external global i64, align 8
@.str.1 = private unnamed_addr constant [30 x i8] c"library initialization failed\00", align 1
@H5E_CANTSET_g = external global i64, align 8
@.str.2 = private unnamed_addr constant [22 x i8] c"can't set API context\00", align 1
@H5E_OHDR_g = external global i64, align 8
@H5E_ARGS_g = external global i64, align 8
@H5E_BADTYPE_g = external global i64, align 8
@H5P_LST_DATASET_XFER_ID_g = external global i64, align 8
@H5E_CANTCORK_g = external global i64, align 8
@.str.81 = private unnamed_addr constant [22 x i8] c"unable to cork object\00", align 1
@__func__.H5Odisable_mdc_flushes = private unnamed_addr constant [23 x i8] c"H5Odisable_mdc_flushes\00", align 1
@.str.82 = private unnamed_addr constant [24 x i8] c"ID is not a file object\00", align 1
@.str.83 = private unnamed_addr constant [18 x i8] c"invalid object ID\00", align 1

; Function Attrs: nounwind uwtable
define i32 @H5Odisable_mdc_flushes(i64 noundef %0) #0 {
  %2 = alloca i64, align 8
  %3 = alloca ptr, align 8
  %4 = alloca %struct.H5VL_optional_args_t, align 8
  %5 = alloca %struct.H5VL_loc_params_t, align 8
  %6 = alloca i32, align 4
  %7 = alloca i8, align 1
  %8 = alloca i8, align 1
  store i64 %0, ptr %2, align 8
  store i32 0, ptr %6, align 4
  store i8 0, ptr %7, align 1
  store i8 0, ptr %8, align 1
  %9 = load i8, ptr @H5_libinit_g, align 1
  %10 = trunc i8 %9 to i1
  br i1 %10, label %15, label %11

11:                                               ; preds = %1
  %12 = load i8, ptr @H5_libterm_g, align 1
  %13 = trunc i8 %12 to i1
  %14 = xor i1 %13, true
  br label %15

15:                                               ; preds = %11, %1
  %16 = phi i1 [ false, %1 ], [ %14, %11 ]
  %17 = xor i1 %16, true
  %18 = xor i1 %17, true
  %19 = zext i1 %18 to i32
  %20 = sext i32 %19 to i64
  %21 = icmp ne i64 %20, 0
  br i1 %21, label %22, label %46

22:                                               ; preds = %15
  %23 = call i32 @H5_init_library()
  %24 = icmp slt i32 %23, 0
  %25 = xor i1 %24, true
  %26 = xor i1 %25, true
  %27 = zext i1 %26 to i32
  %28 = sext i32 %27 to i64
  %29 = icmp ne i64 %28, 0
  br i1 %29, label %30, label %45

30:                                               ; preds = %22
  br label %31

31:                                               ; preds = %30
  br label %32

32:                                               ; preds = %31
  br label %33

33:                                               ; preds = %32
  %34 = load i64, ptr @H5E_FUNC_g, align 8
  %35 = load i64, ptr @H5E_CANTINIT_g, align 8
  %36 = call i32 (ptr, ptr, i32, i64, i64, ptr, ...) @H5E_printf_stack(ptr noundef @.str, ptr noundef @__func__.H5Odisable_mdc_flushes, i32 noundef 2018, i64 noundef %34, i64 noundef %35, ptr noundef @.str.1)
  br label %37

37:                                               ; preds = %33
  store i8 1, ptr %8, align 1
  %38 = load i8, ptr %8, align 1
  %39 = trunc i8 %38 to i1
  %40 = zext i1 %39 to i8
  store i8 %40, ptr %8, align 1
  br label %41

41:                                               ; preds = %37
  br label %42

42:                                               ; preds = %41
  store i32 -1, ptr %6, align 4
  br label %136

43:                                               ; No predecessors!
  br label %44

44:                                               ; preds = %43
  br label %45

45:                                               ; preds = %44, %22
  br label %46

46:                                               ; preds = %45, %15
  %47 = call i32 @H5CX_push()
  %48 = icmp slt i32 %47, 0
  %49 = xor i1 %48, true
  %50 = xor i1 %49, true
  %51 = zext i1 %50 to i32
  %52 = sext i32 %51 to i64
  %53 = icmp ne i64 %52, 0
  br i1 %53, label %54, label %69

54:                                               ; preds = %46
  br label %55

55:                                               ; preds = %54
  br label %56

56:                                               ; preds = %55
  br label %57

57:                                               ; preds = %56
  %58 = load i64, ptr @H5E_FUNC_g, align 8
  %59 = load i64, ptr @H5E_CANTSET_g, align 8
  %60 = call i32 (ptr, ptr, i32, i64, i64, ptr, ...) @H5E_printf_stack(ptr noundef @.str, ptr noundef @__func__.H5Odisable_mdc_flushes, i32 noundef 2018, i64 noundef %58, i64 noundef %59, ptr noundef @.str.2)
  br label %61

61:                                               ; preds = %57
  store i8 1, ptr %8, align 1
  %62 = load i8, ptr %8, align 1
  %63 = trunc i8 %62 to i1
  %64 = zext i1 %63 to i8
  store i8 %64, ptr %8, align 1
  br label %65

65:                                               ; preds = %61
  br label %66

66:                                               ; preds = %65
  store i32 -1, ptr %6, align 4
  br label %136

67:                                               ; No predecessors!
  br label %68

68:                                               ; preds = %67
  br label %70

69:                                               ; preds = %46
  store i8 1, ptr %7, align 1
  br label %70

70:                                               ; preds = %69, %68
  %71 = call i32 @H5E_clear_stack()
  %72 = load i64, ptr %2, align 8
  %73 = call i32 @H5I_is_file_object(i64 noundef %72)
  %74 = icmp ne i32 %73, 1
  br i1 %74, label %75, label %90

75:                                               ; preds = %70
  br label %76

76:                                               ; preds = %75
  br label %77

77:                                               ; preds = %76
  br label %78

78:                                               ; preds = %77
  %79 = load i64, ptr @H5E_ARGS_g, align 8
  %80 = load i64, ptr @H5E_BADTYPE_g, align 8
  %81 = call i32 (ptr, ptr, i32, i64, i64, ptr, ...) @H5E_printf_stack(ptr noundef @.str, ptr noundef @__func__.H5Odisable_mdc_flushes, i32 noundef 2022, i64 noundef %79, i64 noundef %80, ptr noundef @.str.82)
  br label %82

82:                                               ; preds = %78
  store i8 1, ptr %8, align 1
  %83 = load i8, ptr %8, align 1
  %84 = trunc i8 %83 to i1
  %85 = zext i1 %84 to i8
  store i8 %85, ptr %8, align 1
  br label %86

86:                                               ; preds = %82
  br label %87

87:                                               ; preds = %86
  store i32 -1, ptr %6, align 4
  br label %136

88:                                               ; No predecessors!
  br label %89

89:                                               ; preds = %88
  br label %90

90:                                               ; preds = %89, %70
  %91 = load i64, ptr %2, align 8
  %92 = call ptr @H5VL_vol_object(i64 noundef %91)
  store ptr %92, ptr %3, align 8
  %93 = icmp eq ptr null, %92
  br i1 %93, label %94, label %109

94:                                               ; preds = %90
  br label %95

95:                                               ; preds = %94
  br label %96

96:                                               ; preds = %95
  br label %97

97:                                               ; preds = %96
  %98 = load i64, ptr @H5E_ARGS_g, align 8
  %99 = load i64, ptr @H5E_BADTYPE_g, align 8
  %100 = call i32 (ptr, ptr, i32, i64, i64, ptr, ...) @H5E_printf_stack(ptr noundef @.str, ptr noundef @__func__.H5Odisable_mdc_flushes, i32 noundef 2026, i64 noundef %98, i64 noundef %99, ptr noundef @.str.83)
  br label %101

101:                                              ; preds = %97
  store i8 1, ptr %8, align 1
  %102 = load i8, ptr %8, align 1
  %103 = trunc i8 %102 to i1
  %104 = zext i1 %103 to i8
  store i8 %104, ptr %8, align 1
  br label %105

105:                                              ; preds = %101
  br label %106

106:                                              ; preds = %105
  store i32 -1, ptr %6, align 4
  br label %136

107:                                              ; No predecessors!
  br label %108

108:                                              ; preds = %107
  br label %109

109:                                              ; preds = %108, %90
  %110 = getelementptr inbounds %struct.H5VL_loc_params_t, ptr %5, i32 0, i32 1
  store i32 0, ptr %110, align 4
  %111 = load i64, ptr %2, align 8
  %112 = call i32 @H5I_get_type(i64 noundef %111)
  %113 = getelementptr inbounds %struct.H5VL_loc_params_t, ptr %5, i32 0, i32 0
  store i32 %112, ptr %113, align 8
  %114 = getelementptr inbounds %struct.H5VL_optional_args_t, ptr %4, i32 0, i32 0
  store i32 2, ptr %114, align 8
  %115 = getelementptr inbounds %struct.H5VL_optional_args_t, ptr %4, i32 0, i32 1
  store ptr null, ptr %115, align 8
  %116 = load ptr, ptr %3, align 8
  %117 = load i64, ptr @H5P_LST_DATASET_XFER_ID_g, align 8
  %118 = call i32 @H5VL_object_optional(ptr noundef %116, ptr noundef %5, ptr noundef %4, i64 noundef %117, ptr noundef null)
  %119 = icmp slt i32 %118, 0
  br i1 %119, label %120, label %135

120:                                              ; preds = %109
  br label %121

121:                                              ; preds = %120
  br label %122

122:                                              ; preds = %121
  br label %123

123:                                              ; preds = %122
  %124 = load i64, ptr @H5E_OHDR_g, align 8
  %125 = load i64, ptr @H5E_CANTCORK_g, align 8
  %126 = call i32 (ptr, ptr, i32, i64, i64, ptr, ...) @H5E_printf_stack(ptr noundef @.str, ptr noundef @__func__.H5Odisable_mdc_flushes, i32 noundef 2039, i64 noundef %124, i64 noundef %125, ptr noundef @.str.81)
  br label %127

127:                                              ; preds = %123
  store i8 1, ptr %8, align 1
  %128 = load i8, ptr %8, align 1
  %129 = trunc i8 %128 to i1
  %130 = zext i1 %129 to i8
  store i8 %130, ptr %8, align 1
  br label %131

131:                                              ; preds = %127
  br label %132

132:                                              ; preds = %131
  store i32 -1, ptr %6, align 4
  br label %136

133:                                              ; No predecessors!
  br label %134

134:                                              ; preds = %133
  br label %135

135:                                              ; preds = %134, %109
  br label %136

136:                                              ; preds = %135, %132, %106, %87, %66, %42
  %137 = load i8, ptr %7, align 1
  %138 = trunc i8 %137 to i1
  %139 = xor i1 %138, true
  %140 = xor i1 %139, true
  %141 = zext i1 %140 to i32
  %142 = sext i32 %141 to i64
  %143 = icmp ne i64 %142, 0
  br i1 %143, label %144, label %146

144:                                              ; preds = %136
  %145 = call i32 @H5CX_pop(i1 noundef zeroext true)
  store i8 0, ptr %7, align 1
  br label %146

146:                                              ; preds = %144, %136
  %147 = load i8, ptr %8, align 1
  %148 = trunc i8 %147 to i1
  %149 = xor i1 %148, true
  %150 = xor i1 %149, true
  %151 = zext i1 %150 to i32
  %152 = sext i32 %151 to i64
  %153 = icmp ne i64 %152, 0
  br i1 %153, label %154, label %156

154:                                              ; preds = %146
  %155 = call i32 @H5E_dump_api_stack()
  br label %156

156:                                              ; preds = %154, %146
  %157 = load i32, ptr %6, align 4
  ret i32 %157
}