; Function Attrs: nounwind uwtable
define range(i32 -1, 1) i32 @H5Odisable_mdc_flushes(i64 noundef %0) local_unnamed_addr #0 {
  %2 = alloca %struct.H5VL_optional_args_t, align 8
  %3 = alloca %struct.H5VL_loc_params_t, align 8
  %4 = load i8, ptr @H5_libinit_g, align 1
  %5 = trunc i8 %4 to i1
  %6 = load i8, ptr @H5_libterm_g, align 1
  %7 = trunc i8 %6 to i1
  %8 = select i1 %5, i1 true, i1 %7
  br i1 %8, label %16, label %9

9:                                                ; preds = %1
  %10 = tail call i32 @H5_init_library() #4
  %11 = icmp slt i32 %10, 0
  br i1 %11, label %12, label %16

12:                                               ; preds = %9
  %13 = load i64, ptr @H5E_FUNC_g, align 8
  %14 = load i64, ptr @H5E_CANTINIT_g, align 8
  %15 = tail call i32 (ptr, ptr, i32, i64, i64, ptr, ...) @H5E_printf_stack(ptr noundef nonnull @.str, ptr noundef nonnull @__func__.H5Odisable_mdc_flushes, i32 noundef 2018, i64 noundef %13, i64 noundef %14, ptr noundef nonnull @.str.1) #4
  br label %.thread22

16:                                               ; preds = %9, %1
  %17 = tail call i32 @H5CX_push() #4
  %18 = icmp slt i32 %17, 0
  br i1 %18, label %19, label %23

19:                                               ; preds = %16
  %20 = load i64, ptr @H5E_FUNC_g, align 8
  %21 = load i64, ptr @H5E_CANTSET_g, align 8
  %22 = tail call i32 (ptr, ptr, i32, i64, i64, ptr, ...) @H5E_printf_stack(ptr noundef nonnull @.str, ptr noundef nonnull @__func__.H5Odisable_mdc_flushes, i32 noundef 2018, i64 noundef %20, i64 noundef %21, ptr noundef nonnull @.str.2) #4
  br label %.thread22

23:                                               ; preds = %16
  %24 = tail call i32 @H5E_clear_stack() #4
  %25 = tail call i32 @H5I_is_file_object(i64 noundef %0) #4
  %.not = icmp eq i32 %25, 1
  br i1 %.not, label %30, label %26

26:                                               ; preds = %23
  %27 = load i64, ptr @H5E_ARGS_g, align 8
  %28 = load i64, ptr @H5E_BADTYPE_g, align 8
  %29 = tail call i32 (ptr, ptr, i32, i64, i64, ptr, ...) @H5E_printf_stack(ptr noundef nonnull @.str, ptr noundef nonnull @__func__.H5Odisable_mdc_flushes, i32 noundef 2022, i64 noundef %27, i64 noundef %28, ptr noundef nonnull @.str.82) #4
  br label %.thread28

30:                                               ; preds = %23
  %31 = tail call ptr @H5VL_vol_object(i64 noundef %0) #4
  %32 = icmp eq ptr %31, null
  br i1 %32, label %33, label %37

33:                                               ; preds = %30
  %34 = load i64, ptr @H5E_ARGS_g, align 8
  %35 = load i64, ptr @H5E_BADTYPE_g, align 8
  %36 = tail call i32 (ptr, ptr, i32, i64, i64, ptr, ...) @H5E_printf_stack(ptr noundef nonnull @.str, ptr noundef nonnull @__func__.H5Odisable_mdc_flushes, i32 noundef 2026, i64 noundef %34, i64 noundef %35, ptr noundef nonnull @.str.83) #4
  br label %.thread28

37:                                               ; preds = %30
  %38 = getelementptr inbounds i8, ptr %3, i64 4
  store i32 0, ptr %38, align 4
  %39 = tail call i32 @H5I_get_type(i64 noundef %0) #4
  store i32 %39, ptr %3, align 8
  store i32 2, ptr %2, align 8
  %40 = getelementptr inbounds i8, ptr %2, i64 8
  store ptr null, ptr %40, align 8
  %41 = load i64, ptr @H5P_LST_DATASET_XFER_ID_g, align 8
  %42 = call i32 @H5VL_object_optional(ptr noundef nonnull %31, ptr noundef nonnull %3, ptr noundef nonnull %2, i64 noundef %41, ptr noundef null) #4
  %43 = icmp slt i32 %42, 0
  br i1 %43, label %44, label %49

44:                                               ; preds = %37
  %45 = load i64, ptr @H5E_OHDR_g, align 8
  %46 = load i64, ptr @H5E_CANTCORK_g, align 8
  %47 = call i32 (ptr, ptr, i32, i64, i64, ptr, ...) @H5E_printf_stack(ptr noundef nonnull @.str, ptr noundef nonnull @__func__.H5Odisable_mdc_flushes, i32 noundef 2039, i64 noundef %45, i64 noundef %46, ptr noundef nonnull @.str.81) #4
  br label %.thread28

.thread28:                                        ; preds = %44, %33, %26
  %48 = call i32 @H5CX_pop(i1 noundef zeroext true) #4
  br label %.thread22

49:                                               ; preds = %37
  %50 = call i32 @H5CX_pop(i1 noundef zeroext true) #4
  br label %52

.thread22:                                        ; preds = %19, %12, %.thread28
  %51 = call i32 @H5E_dump_api_stack() #4
  br label %52

52:                                               ; preds = %49, %.thread22
  %.0121725 = phi i32 [ -1, %.thread22 ], [ 0, %49 ]
  ret i32 %.0121725
}